; Function Attrs: nounwind uwtable
define internal void @seatHandleCapabilities(ptr readnone captures(none) %0, ptr noundef %1, i32 noundef %2) #0 {
  %4 = and i32 %2, 1
  %5 = icmp eq i32 %4, 0
  %6 = load ptr, ptr getelementptr inbounds nuw (i8, ptr @_glfw, i64 133936), align 8
  %7 = icmp ne ptr %6, null
  %or.cond = select i1 %5, i1 true, i1 %7
  br i1 %or.cond, label %15, label %8

8:                                                ; preds = %3
  %9 = load ptr, ptr getelementptr inbounds nuw (i8, ptr @_glfw, i64 137528), align 8, !tbaa !136
  %10 = load ptr, ptr getelementptr inbounds nuw (i8, ptr @_glfw, i64 137520), align 8, !tbaa !93
  %11 = tail call i32 %10(ptr noundef %1) #20
  %12 = tail call ptr (ptr, i32, ptr, i32, i32, ...) %9(ptr noundef %1, i32 noundef 0, ptr noundef nonnull @_glfw_wl_pointer_interface, i32 noundef %11, i32 noundef 0, ptr noundef null) #20
  store ptr %12, ptr getelementptr inbounds nuw (i8, ptr @_glfw, i64 133936), align 8, !tbaa !298
  %13 = load ptr, ptr getelementptr inbounds nuw (i8, ptr @_glfw, i64 137456), align 8, !tbaa !176
  %14 = tail call i32 %13(ptr noundef %12, ptr noundef nonnull @pointerListener, ptr noundef null) #20
  br label %18

15:                                               ; preds = %3
  %or.cond3 = select i1 %5, i1 %7, i1 false
  br i1 %or.cond3, label %16, label %18

16:                                               ; preds = %15
  %17 = load ptr, ptr getelementptr inbounds nuw (i8, ptr @_glfw, i64 137464), align 8, !tbaa !356
  tail call void %17(ptr noundef nonnull %6) #20
  store ptr null, ptr getelementptr inbounds nuw (i8, ptr @_glfw, i64 133936), align 8, !tbaa !298
  br label %18

18:                                               ; preds = %15, %16, %8
  %19 = and i32 %2, 2
  %20 = icmp eq i32 %19, 0
  %21 = load ptr, ptr getelementptr inbounds nuw (i8, ptr @_glfw, i64 133944), align 8
  %22 = icmp ne ptr %21, null
  %or.cond5 = select i1 %20, i1 true, i1 %22
  br i1 %or.cond5, label %30, label %23

23:                                               ; preds = %18
  %24 = load ptr, ptr getelementptr inbounds nuw (i8, ptr @_glfw, i64 137528), align 8, !tbaa !136
  %25 = load ptr, ptr getelementptr inbounds nuw (i8, ptr @_glfw, i64 137520), align 8, !tbaa !93
  %26 = tail call i32 %25(ptr noundef %1) #20
  %27 = tail call ptr (ptr, i32, ptr, i32, i32, ...) %24(ptr noundef %1, i32 noundef 1, ptr noundef nonnull @_glfw_wl_keyboard_interface, i32 noundef %26, i32 noundef 0, ptr noundef null) #20
  store ptr %27, ptr getelementptr inbounds nuw (i8, ptr @_glfw, i64 133944), align 8, !tbaa !357
  %28 = load ptr, ptr getelementptr inbounds nuw (i8, ptr @_glfw, i64 137456), align 8, !tbaa !176
  %29 = tail call i32 %28(ptr noundef %27, ptr noundef nonnull @keyboardListener, ptr noundef null) #20
  br label %33

30:                                               ; preds = %18
  %or.cond7 = select i1 %20, i1 %22, i1 false
  br i1 %or.cond7, label %31, label %33

31:                                               ; preds = %30
  %32 = load ptr, ptr getelementptr inbounds nuw (i8, ptr @_glfw, i64 137464), align 8, !tbaa !356
  tail call void %32(ptr noundef nonnull %21) #20
  store ptr null, ptr getelementptr inbounds nuw (i8, ptr @_glfw, i64 133944), align 8, !tbaa !357
  br label %33

33:                                               ; preds = %30, %31, %23
  ret void
}